target datalayout = "e-m:e-p270:32:32-p271:32:32-p272:64:64-i64:64-i128:128-f80:128-n8:16:32:64-S128"
target triple = "x86_64-pc-linux-gnu"

%struct.AVChannelLayout = type { i32, i32, %union.anon.2, ptr }
%union.anon.2 = type { i64 }
%struct.AACDecContext = type { ptr, ptr, %struct.AACDecDSP, %struct.AACDecProc, ptr, i32, %struct.DynamicRangeControl, [4 x [64 x ptr]], [4 x [64 x ptr]], i32, i32, [8 x i8], %union.anon, %union.anon.0, ptr, ptr, ptr, ptr, ptr, ptr, ptr, ptr, ptr, ptr, ptr, ptr, ptr, ptr, ptr, ptr, ptr, ptr, %union.anon.1, i32, [64 x ptr], i32, i32, i32, [2 x %struct.OutputConfiguration], i32, i32, i32, i32, i32, i32, [8 x i8] }
%struct.AACDecDSP = type { ptr, ptr, ptr, ptr, ptr, ptr, ptr, ptr, ptr, ptr, ptr, ptr, ptr, ptr, ptr }
%struct.AACDecProc = type { ptr, ptr, ptr, ptr, ptr, ptr }
%struct.DynamicRangeControl = type { i32, [17 x i32], [17 x i32], [64 x i32], i32, i32, [17 x i32], i32 }
%union.anon = type { [1024 x i32] }
%union.anon.0 = type { [128 x i32] }
%union.anon.1 = type { ptr }
%struct.OutputConfiguration = type { %struct.MPEG4AudioConfig, [256 x [3 x i8]], i32, %struct.AVChannelLayout, i32, %struct.AACUSACConfig }
%struct.MPEG4AudioConfig = type { i32, i32, i32, i32, i32, i32, i32, i32, i32, i32, i32, i32 }
%struct.AACUSACConfig = type { i8, i16, i16, [64 x %struct.AACUsacElemConfig], i32, %struct.anon.6 }
%struct.AACUsacElemConfig = type { i32, i8, i8, %struct.anon, %struct.anon.4, %struct.anon.5 }
%struct.anon = type { i32, i8, %struct.anon.3 }
%struct.anon.3 = type { i8, i8, i8, i8, i8, i8, i8, i8 }
%struct.anon.4 = type { i8, i8, i8, i8, i8, i8, i8, i8, i8 }
%struct.anon.5 = type { i32, i8, i32, i32, ptr }
%struct.anon.6 = type { i8, i8, [64 x %struct.AACUSACLoudnessInfo], i8, i8, [64 x %struct.AACUSACLoudnessInfo] }
%struct.AACUSACLoudnessInfo = type <{ i16, %struct.anon.7, %struct.anon.8, i8, [16 x %struct.anon.9], i8 }>
%struct.anon.7 = type { i16 }
%struct.anon.8 = type { i32 }
%struct.anon.9 = type { i8, i8, i8 }
%struct.AVCodecContext = type { ptr, i32, i32, ptr, i32, i32, ptr, ptr, ptr, i64, i32, i32, ptr, i32, %struct.AVRational, %struct.AVRational, %struct.AVRational, i32, i32, i32, i32, i32, %struct.AVRational, i32, i32, i32, i32, i32, i32, i32, i32, i32, i32, i32, ptr, ptr, i32, float, float, float, float, float, float, float, float, float, i32, i32, i32, i32, i32, i32, i32, i32, i32, i32, i32, i32, ptr, ptr, ptr, i32, i32, i32, i32, i32, i32, i32, i32, i32, i32, %struct.AVChannelLayout, i32, i32, i32, i32, i32, i32, i32, i32, ptr, i32, i32, i32, float, float, i32, i32, i32, i32, i32, ptr, i64, i64, float, float, i32, i32, ptr, ptr, i32, i32, i32, i32, i32, ptr, ptr, ptr, ptr, i32, i32, [8 x i64], i32, i32, i32, i32, i32, i32, i32, ptr, ptr, i32, i32, i32, i32, i32, i32, i32, i32, i32, i32, ptr, ptr, i32, i32, ptr, ptr, ptr, ptr, i32, i32, i64, i32, i32, i64, ptr, i64, ptr, i32, ptr, i32 }
%struct.AVRational = type { i32, i32 }

; Function Attrs: cold nounwind optsize uwtable
define internal i32 @init_dsp(ptr noundef %0) #5 {
  %2 = alloca i32, align 4
  %3 = alloca ptr, align 8
  %4 = alloca ptr, align 8
  %5 = alloca i32, align 4
  %6 = alloca i32, align 4
  %7 = alloca float, align 4
  %8 = alloca float, align 4
  %9 = alloca ptr, align 8
  %10 = alloca i32, align 4
  %11 = alloca i32, align 4
  store ptr %0, ptr %3, align 8, !tbaa !22
  call void @llvm.lifetime.start.p0(i64 8, ptr %4) #12
  %12 = load ptr, ptr %3, align 8, !tbaa !22
  %13 = getelementptr inbounds nuw %struct.AVCodecContext, ptr %12, i32 0, i32 6
  %14 = load ptr, ptr %13, align 8, !tbaa !59
  store ptr %14, ptr %4, align 8, !tbaa !4
  call void @llvm.lifetime.start.p0(i64 4, ptr %5) #12
  %15 = load ptr, ptr %4, align 8, !tbaa !4
  %16 = getelementptr inbounds nuw %struct.AACDecContext, ptr %15, i32 0, i32 44
  %17 = load i32, ptr %16, align 4, !tbaa !105
  store i32 %17, ptr %5, align 4, !tbaa !11
  call void @llvm.lifetime.start.p0(i64 4, ptr %6) #12
  call void @llvm.lifetime.start.p0(i64 4, ptr %7) #12
  call void @llvm.lifetime.start.p0(i64 4, ptr %8) #12
  call void @llvm.lifetime.start.p0(i64 8, ptr %9) #12
  %18 = load i32, ptr %5, align 4, !tbaa !11
  %19 = icmp ne i32 %18, 0
  br i1 %19, label %20, label %21

20:                                               ; preds = %1
  br label %22

21:                                               ; preds = %1
  br label %22

22:                                               ; preds = %21, %20
  %23 = phi ptr [ %7, %20 ], [ %8, %21 ]
  store ptr %23, ptr %9, align 8, !tbaa !106
  call void @llvm.lifetime.start.p0(i64 4, ptr %10) #12
  %24 = load i32, ptr %5, align 4, !tbaa !11
  %25 = icmp ne i32 %24, 0
  %26 = select i1 %25, i32 5, i32 1
  store i32 %26, ptr %10, align 4, !tbaa !11
  store float 0x3FF5555560000000, ptr %7, align 4, !tbaa !108
  store float 0x3E95555560000000, ptr %8, align 4, !tbaa !108
  %27 = load ptr, ptr %4, align 8, !tbaa !4
  %28 = getelementptr inbounds nuw %struct.AACDecContext, ptr %27, i32 0, i32 14
  %29 = load ptr, ptr %4, align 8, !tbaa !4
  %30 = getelementptr inbounds nuw %struct.AACDecContext, ptr %29, i32 0, i32 23
  %31 = load i32, ptr %10, align 4, !tbaa !11
  %32 = load ptr, ptr %9, align 8, !tbaa !106
  %33 = call i32 @av_tx_init(ptr noundef %28, ptr noundef %30, i32 noundef %31, i32 noundef 1, i32 noundef 96, ptr noundef %32, i64 noundef 0)
  store i32 %33, ptr %6, align 4, !tbaa !11
  %34 = load i32, ptr %6, align 4, !tbaa !11
  %35 = icmp slt i32 %34, 0
  br i1 %35, label %36, label %38

36:                                               ; preds = %22
  %37 = load i32, ptr %6, align 4, !tbaa !11
  store i32 %37, ptr %2, align 4
  store i32 1, ptr %11, align 4
  br label %135

38:                                               ; preds = %22
  store float 0x3FF1111120000000, ptr %7, align 4, !tbaa !108
  store float 0x3E91111120000000, ptr %8, align 4, !tbaa !108
  %39 = load ptr, ptr %4, align 8, !tbaa !4
  %40 = getelementptr inbounds nuw %struct.AACDecContext, ptr %39, i32 0, i32 15
  %41 = load ptr, ptr %4, align 8, !tbaa !4
  %42 = getelementptr inbounds nuw %struct.AACDecContext, ptr %41, i32 0, i32 24
  %43 = load i32, ptr %10, align 4, !tbaa !11
  %44 = load ptr, ptr %9, align 8, !tbaa !106
  %45 = call i32 @av_tx_init(ptr noundef %40, ptr noundef %42, i32 noundef %43, i32 noundef 1, i32 noundef 120, ptr noundef %44, i64 noundef 0)
  store i32 %45, ptr %6, align 4, !tbaa !11
  %46 = load i32, ptr %6, align 4, !tbaa !11
  %47 = icmp slt i32 %46, 0
  br i1 %47, label %48, label %50

48:                                               ; preds = %38
  %49 = load i32, ptr %6, align 4, !tbaa !11
  store i32 %49, ptr %2, align 4
  store i32 1, ptr %11, align 4
  br label %135

50:                                               ; preds = %38
  store float 1.000000e+00, ptr %7, align 4, !tbaa !108
  store float 0x3E90000000000000, ptr %8, align 4, !tbaa !108
  %51 = load ptr, ptr %4, align 8, !tbaa !4
  %52 = getelementptr inbounds nuw %struct.AACDecContext, ptr %51, i32 0, i32 16
  %53 = load ptr, ptr %4, align 8, !tbaa !4
  %54 = getelementptr inbounds nuw %struct.AACDecContext, ptr %53, i32 0, i32 25
  %55 = load i32, ptr %10, align 4, !tbaa !11
  %56 = load ptr, ptr %9, align 8, !tbaa !106
  %57 = call i32 @av_tx_init(ptr noundef %52, ptr noundef %54, i32 noundef %55, i32 noundef 1, i32 noundef 128, ptr noundef %56, i64 noundef 0)
  store i32 %57, ptr %6, align 4, !tbaa !11
  %58 = load i32, ptr %6, align 4, !tbaa !11
  %59 = icmp slt i32 %58, 0
  br i1 %59, label %60, label %62

60:                                               ; preds = %50
  %61 = load i32, ptr %6, align 4, !tbaa !11
  store i32 %61, ptr %2, align 4
  store i32 1, ptr %11, align 4
  br label %135

62:                                               ; preds = %50
  store float 0x3FD1111120000000, ptr %7, align 4, !tbaa !108
  store float 0x3E71111120000000, ptr %8, align 4, !tbaa !108
  %63 = load ptr, ptr %4, align 8, !tbaa !4
  %64 = getelementptr inbounds nuw %struct.AACDecContext, ptr %63, i32 0, i32 17
  %65 = load ptr, ptr %4, align 8, !tbaa !4
  %66 = getelementptr inbounds nuw %struct.AACDecContext, ptr %65, i32 0, i32 26
  %67 = load i32, ptr %10, align 4, !tbaa !11
  %68 = load ptr, ptr %9, align 8, !tbaa !106
  %69 = call i32 @av_tx_init(ptr noundef %64, ptr noundef %66, i32 noundef %67, i32 noundef 1, i32 noundef 480, ptr noundef %68, i64 noundef 0)
  store i32 %69, ptr %6, align 4, !tbaa !11
  %70 = load i32, ptr %6, align 4, !tbaa !11
  %71 = icmp slt i32 %70, 0
  br i1 %71, label %72, label %74

72:                                               ; preds = %62
  %73 = load i32, ptr %6, align 4, !tbaa !11
  store i32 %73, ptr %2, align 4
  store i32 1, ptr %11, align 4
  br label %135

74:                                               ; preds = %62
  store float 2.500000e-01, ptr %7, align 4, !tbaa !108
  store float 0x3E70000000000000, ptr %8, align 4, !tbaa !108
  %75 = load ptr, ptr %4, align 8, !tbaa !4
  %76 = getelementptr inbounds nuw %struct.AACDecContext, ptr %75, i32 0, i32 18
  %77 = load ptr, ptr %4, align 8, !tbaa !4
  %78 = getelementptr inbounds nuw %struct.AACDecContext, ptr %77, i32 0, i32 27
  %79 = load i32, ptr %10, align 4, !tbaa !11
  %80 = load ptr, ptr %9, align 8, !tbaa !106
  %81 = call i32 @av_tx_init(ptr noundef %76, ptr noundef %78, i32 noundef %79, i32 noundef 1, i32 noundef 512, ptr noundef %80, i64 noundef 0)
  store i32 %81, ptr %6, align 4, !tbaa !11
  %82 = load i32, ptr %6, align 4, !tbaa !11
  %83 = icmp slt i32 %82, 0
  br i1 %83, label %84, label %86

84:                                               ; preds = %74
  %85 = load i32, ptr %6, align 4, !tbaa !11
  store i32 %85, ptr %2, align 4
  store i32 1, ptr %11, align 4
  br label %135

86:                                               ; preds = %74
  store float 0x3FC5555560000000, ptr %7, align 4, !tbaa !108
  store float 0x3E65555560000000, ptr %8, align 4, !tbaa !108
  %87 = load ptr, ptr %4, align 8, !tbaa !4
  %88 = getelementptr inbounds nuw %struct.AACDecContext, ptr %87, i32 0, i32 19
  %89 = load ptr, ptr %4, align 8, !tbaa !4
  %90 = getelementptr inbounds nuw %struct.AACDecContext, ptr %89, i32 0, i32 28
  %91 = load i32, ptr %10, align 4, !tbaa !11
  %92 = load ptr, ptr %9, align 8, !tbaa !106
  %93 = call i32 @av_tx_init(ptr noundef %88, ptr noundef %90, i32 noundef %91, i32 noundef 1, i32 noundef 768, ptr noundef %92, i64 noundef 0)
  store i32 %93, ptr %6, align 4, !tbaa !11
  %94 = load i32, ptr %6, align 4, !tbaa !11
  %95 = icmp slt i32 %94, 0
  br i1 %95, label %96, label %98

96:                                               ; preds = %86
  %97 = load i32, ptr %6, align 4, !tbaa !11
  store i32 %97, ptr %2, align 4
  store i32 1, ptr %11, align 4
  br label %135

98:                                               ; preds = %86
  store float 0x3FC1111120000000, ptr %7, align 4, !tbaa !108
  store float 0x3E61111120000000, ptr %8, align 4, !tbaa !108
  %99 = load ptr, ptr %4, align 8, !tbaa !4
  %100 = getelementptr inbounds nuw %struct.AACDecContext, ptr %99, i32 0, i32 20
  %101 = load ptr, ptr %4, align 8, !tbaa !4
  %102 = getelementptr inbounds nuw %struct.AACDecContext, ptr %101, i32 0, i32 29
  %103 = load i32, ptr %10, align 4, !tbaa !11
  %104 = load ptr, ptr %9, align 8, !tbaa !106
  %105 = call i32 @av_tx_init(ptr noundef %100, ptr noundef %102, i32 noundef %103, i32 noundef 1, i32 noundef 960, ptr noundef %104, i64 noundef 0)
  store i32 %105, ptr %6, align 4, !tbaa !11
  %106 = load i32, ptr %6, align 4, !tbaa !11
  %107 = icmp slt i32 %106, 0
  br i1 %107, label %108, label %110

108:                                              ; preds = %98
  %109 = load i32, ptr %6, align 4, !tbaa !11
  store i32 %109, ptr %2, align 4
  store i32 1, ptr %11, align 4
  br label %135

110:                                              ; preds = %98
  store float 1.250000e-01, ptr %7, align 4, !tbaa !108
  store float 0x3E60000000000000, ptr %8, align 4, !tbaa !108
  %111 = load ptr, ptr %4, align 8, !tbaa !4
  %112 = getelementptr inbounds nuw %struct.AACDecContext, ptr %111, i32 0, i32 21
  %113 = load ptr, ptr %4, align 8, !tbaa !4
  %114 = getelementptr inbounds nuw %struct.AACDecContext, ptr %113, i32 0, i32 30
  %115 = load i32, ptr %10, align 4, !tbaa !11
  %116 = load ptr, ptr %9, align 8, !tbaa !106
  %117 = call i32 @av_tx_init(ptr noundef %112, ptr noundef %114, i32 noundef %115, i32 noundef 1, i32 noundef 1024, ptr noundef %116, i64 noundef 0)
  store i32 %117, ptr %6, align 4, !tbaa !11
  %118 = load i32, ptr %6, align 4, !tbaa !11
  %119 = icmp slt i32 %118, 0
  br i1 %119, label %120, label %122

120:                                              ; preds = %110
  %121 = load i32, ptr %6, align 4, !tbaa !11
  store i32 %121, ptr %2, align 4
  store i32 1, ptr %11, align 4
  br label %135

122:                                              ; preds = %110
  store float -1.000000e+00, ptr %7, align 4, !tbaa !108
  store float -6.553600e+04, ptr %8, align 4, !tbaa !108
  %123 = load ptr, ptr %4, align 8, !tbaa !4
  %124 = getelementptr inbounds nuw %struct.AACDecContext, ptr %123, i32 0, i32 22
  %125 = load ptr, ptr %4, align 8, !tbaa !4
  %126 = getelementptr inbounds nuw %struct.AACDecContext, ptr %125, i32 0, i32 31
  %127 = load i32, ptr %10, align 4, !tbaa !11
  %128 = load ptr, ptr %9, align 8, !tbaa !106
  %129 = call i32 @av_tx_init(ptr noundef %124, ptr noundef %126, i32 noundef %127, i32 noundef 0, i32 noundef 1024, ptr noundef %128, i64 noundef 0)
  store i32 %129, ptr %6, align 4, !tbaa !11
  %130 = load i32, ptr %6, align 4, !tbaa !11
  %131 = icmp slt i32 %130, 0
  br i1 %131, label %132, label %134

132:                                              ; preds = %122
  %133 = load i32, ptr %6, align 4, !tbaa !11
  store i32 %133, ptr %2, align 4
  store i32 1, ptr %11, align 4
  br label %135

134:                                              ; preds = %122
  store i32 0, ptr %2, align 4
  store i32 1, ptr %11, align 4
  br label %135

135:                                              ; preds = %134, %132, %120, %108, %96, %84, %72, %60, %48, %36
  call void @llvm.lifetime.end.p0(i64 4, ptr %10) #12
  call void @llvm.lifetime.end.p0(i64 8, ptr %9) #12
  call void @llvm.lifetime.end.p0(i64 4, ptr %8) #12
  call void @llvm.lifetime.end.p0(i64 4, ptr %7) #12
  call void @llvm.lifetime.end.p0(i64 4, ptr %6) #12
  call void @llvm.lifetime.end.p0(i64 4, ptr %5) #12
  call void @llvm.lifetime.end.p0(i64 8, ptr %4) #12
  %136 = load i32, ptr %2, align 4
  ret i32 %136
}