; Function Attrs: cold nounwind optsize uwtable
define internal fastcc range(i32 -2147483648, 1) i32 @init_dsp(ptr %.32.val) unnamed_addr #5 {
  %1 = alloca float, align 4
  %2 = alloca float, align 4
  %3 = getelementptr inbounds nuw i8, ptr %.32.val, i64 34884
  %4 = load i32, ptr %3, align 4, !tbaa !106
  call void @llvm.lifetime.start.p0(i64 4, ptr nonnull %1) #13
  call void @llvm.lifetime.start.p0(i64 4, ptr nonnull %2) #13
  %.not = icmp eq i32 %4, 0
  %. = select i1 %.not, ptr %2, ptr %1
  %5 = select i1 %.not, i32 1, i32 5
  store float 0x3FF5555560000000, ptr %1, align 4, !tbaa !107
  store float 0x3E95555560000000, ptr %2, align 4, !tbaa !107
  %6 = getelementptr inbounds nuw i8, ptr %.32.val, i64 9392
  %7 = getelementptr inbounds nuw i8, ptr %.32.val, i64 9464
  %8 = call i32 @av_tx_init(ptr noundef nonnull %6, ptr noundef nonnull %7, i32 noundef %5, i32 noundef 1, i32 noundef 96, ptr noundef nonnull %., i64 noundef 0) #13
  %9 = icmp slt i32 %8, 0
  br i1 %9, label %49, label %10

10:                                               ; preds = %0
  store float 0x3FF1111120000000, ptr %1, align 4, !tbaa !107
  store float 0x3E91111120000000, ptr %2, align 4, !tbaa !107
  %11 = getelementptr inbounds nuw i8, ptr %.32.val, i64 9400
  %12 = getelementptr inbounds nuw i8, ptr %.32.val, i64 9472
  %13 = call i32 @av_tx_init(ptr noundef nonnull %11, ptr noundef nonnull %12, i32 noundef %5, i32 noundef 1, i32 noundef 120, ptr noundef nonnull %., i64 noundef 0) #13
  %14 = icmp slt i32 %13, 0
  br i1 %14, label %49, label %15

15:                                               ; preds = %10
  store float 1.000000e+00, ptr %1, align 4, !tbaa !107
  store float 0x3E90000000000000, ptr %2, align 4, !tbaa !107
  %16 = getelementptr inbounds nuw i8, ptr %.32.val, i64 9408
  %17 = getelementptr inbounds nuw i8, ptr %.32.val, i64 9480
  %18 = call i32 @av_tx_init(ptr noundef nonnull %16, ptr noundef nonnull %17, i32 noundef %5, i32 noundef 1, i32 noundef 128, ptr noundef nonnull %., i64 noundef 0) #13
  %19 = icmp slt i32 %18, 0
  br i1 %19, label %49, label %20

20:                                               ; preds = %15
  store float 0x3FD1111120000000, ptr %1, align 4, !tbaa !107
  store float 0x3E71111120000000, ptr %2, align 4, !tbaa !107
  %21 = getelementptr inbounds nuw i8, ptr %.32.val, i64 9416
  %22 = getelementptr inbounds nuw i8, ptr %.32.val, i64 9488
  %23 = call i32 @av_tx_init(ptr noundef nonnull %21, ptr noundef nonnull %22, i32 noundef %5, i32 noundef 1, i32 noundef 480, ptr noundef nonnull %., i64 noundef 0) #13
  %24 = icmp slt i32 %23, 0
  br i1 %24, label %49, label %25

25:                                               ; preds = %20
  store float 2.500000e-01, ptr %1, align 4, !tbaa !107
  store float 0x3E70000000000000, ptr %2, align 4, !tbaa !107
  %26 = getelementptr inbounds nuw i8, ptr %.32.val, i64 9424
  %27 = getelementptr inbounds nuw i8, ptr %.32.val, i64 9496
  %28 = call i32 @av_tx_init(ptr noundef nonnull %26, ptr noundef nonnull %27, i32 noundef %5, i32 noundef 1, i32 noundef 512, ptr noundef nonnull %., i64 noundef 0) #13
  %29 = icmp slt i32 %28, 0
  br i1 %29, label %49, label %30

30:                                               ; preds = %25
  store float 0x3FC5555560000000, ptr %1, align 4, !tbaa !107
  store float 0x3E65555560000000, ptr %2, align 4, !tbaa !107
  %31 = getelementptr inbounds nuw i8, ptr %.32.val, i64 9432
  %32 = getelementptr inbounds nuw i8, ptr %.32.val, i64 9504
  %33 = call i32 @av_tx_init(ptr noundef nonnull %31, ptr noundef nonnull %32, i32 noundef %5, i32 noundef 1, i32 noundef 768, ptr noundef nonnull %., i64 noundef 0) #13
  %34 = icmp slt i32 %33, 0
  br i1 %34, label %49, label %35

35:                                               ; preds = %30
  store float 0x3FC1111120000000, ptr %1, align 4, !tbaa !107
  store float 0x3E61111120000000, ptr %2, align 4, !tbaa !107
  %36 = getelementptr inbounds nuw i8, ptr %.32.val, i64 9440
  %37 = getelementptr inbounds nuw i8, ptr %.32.val, i64 9512
  %38 = call i32 @av_tx_init(ptr noundef nonnull %36, ptr noundef nonnull %37, i32 noundef %5, i32 noundef 1, i32 noundef 960, ptr noundef nonnull %., i64 noundef 0) #13
  %39 = icmp slt i32 %38, 0
  br i1 %39, label %49, label %40

40:                                               ; preds = %35
  store float 1.250000e-01, ptr %1, align 4, !tbaa !107
  store float 0x3E60000000000000, ptr %2, align 4, !tbaa !107
  %41 = getelementptr inbounds nuw i8, ptr %.32.val, i64 9448
  %42 = getelementptr inbounds nuw i8, ptr %.32.val, i64 9520
  %43 = call i32 @av_tx_init(ptr noundef nonnull %41, ptr noundef nonnull %42, i32 noundef %5, i32 noundef 1, i32 noundef 1024, ptr noundef nonnull %., i64 noundef 0) #13
  %44 = icmp slt i32 %43, 0
  br i1 %44, label %49, label %45

45:                                               ; preds = %40
  store float -1.000000e+00, ptr %1, align 4, !tbaa !107
  store float -6.553600e+04, ptr %2, align 4, !tbaa !107
  %46 = getelementptr inbounds nuw i8, ptr %.32.val, i64 9456
  %47 = getelementptr inbounds nuw i8, ptr %.32.val, i64 9528
  %48 = call i32 @av_tx_init(ptr noundef nonnull %46, ptr noundef nonnull %47, i32 noundef %5, i32 noundef 0, i32 noundef 1024, ptr noundef nonnull %., i64 noundef 0) #13
  %.67 = call i32 @llvm.smin.i32(i32 %48, i32 0)
  br label %49

49:                                               ; preds = %45, %40, %35, %30, %25, %20, %15, %10, %0
  %.0 = phi i32 [ %8, %0 ], [ %13, %10 ], [ %18, %15 ], [ %23, %20 ], [ %28, %25 ], [ %33, %30 ], [ %38, %35 ], [ %43, %40 ], [ %.67, %45 ]
  call void @llvm.lifetime.end.p0(i64 4, ptr nonnull %2) #13
  call void @llvm.lifetime.end.p0(i64 4, ptr nonnull %1) #13
  ret i32 %.0
}